; Function Attrs: mustprogress uwtable
define void @_ZN5Yosys5RTLIL9const_posERKNS0_5ConstES3_bbi(ptr dead_on_unwind noalias nonnull writable sret(%"struct.Yosys::RTLIL::Const") align 8 %0, ptr noundef nonnull align 8 dereferenceable(40) %1, ptr noundef nonnull readnone align 8 captures(none) dereferenceable(40) %2, i1 noundef zeroext %3, i1 noundef zeroext %4, i32 noundef %5) local_unnamed_addr #3 personality ptr @__gxx_personality_v0 {
  tail call void @_ZN5Yosys5RTLIL5ConstC1ERKS1_(ptr noundef nonnull align 8 dereferenceable(40) %0, ptr noundef nonnull align 8 dereferenceable(40) %1)
  invoke fastcc void @_ZN5YosysL9extend_u0ERNS_5RTLIL5ConstEib(ptr noundef nonnull align 8 dereferenceable(40) %0, i32 noundef %5, i1 noundef zeroext %3)
          to label %9 unwind label %7

7:                                                ; preds = %6
  %8 = landingpad { ptr, i32 }
          cleanup
  tail call void @_ZN5Yosys5RTLIL5ConstD1Ev(ptr noundef nonnull align 8 dereferenceable(40) %0) #19
  resume { ptr, i32 } %8

9:                                                ; preds = %6
  ret void
}